target datalayout = "e-m:e-p270:32:32-p271:32:32-p272:64:64-i64:64-i128:128-f80:128-n8:16:32:64-S128"
target triple = "x86_64-pc-linux-gnu"

%struct.decode_as_s = type { ptr, ptr, i32, i32, ptr, ptr, ptr, ptr, ptr, ptr, ptr }

@proto_register_l2tp.ett = internal global [10 x ptr] [ptr @ett_l2tp, ptr @ett_l2tp_flags, ptr @ett_l2tp_avp, ptr @ett_l2tp_avp_sub, ptr @ett_l2tp_ale_sub, ptr @ett_l2tp_l2_spec, ptr @ett_l2tp_lcp, ptr @ett_l2tp_csu, ptr @ett_l2tp_ericsson_tcg, ptr @ett_l2tp_ericsson_map], align 16
@proto_register_l2tp.l2tp_da = internal global %struct.decode_as_s { ptr @.str.380, ptr @.str.381, i32 1, i32 0, ptr @proto_register_l2tp.l2tp_da_values, ptr null, ptr null, ptr @decode_as_default_populate_list, ptr @decode_as_default_reset, ptr @decode_as_default_change, ptr null }, align 8
@.str.380 = private unnamed_addr constant [5 x i8] c"l2tp\00", align 1
@.str.381 = private unnamed_addr constant [13 x i8] c"l2tp.pw_type\00", align 1
@.str.382 = private unnamed_addr constant [27 x i8] c"Layer 2 Tunneling Protocol\00", align 1
@.str.383 = private unnamed_addr constant [5 x i8] c"L2TP\00", align 1
@proto_l2tp = internal global i32 0, align 4
@.str.384 = private unnamed_addr constant [9 x i8] c"lt2p_udp\00", align 1
@l2tp_udp_handle = internal global ptr null, align 8
@.str.385 = private unnamed_addr constant [8 x i8] c"l2tp_ip\00", align 1
@l2tp_ip_handle = internal global ptr null, align 8
@.str.386 = private unnamed_addr constant [12 x i8] c"atm_oam_llc\00", align 1
@atm_oam_llc_handle = internal global ptr null, align 8
@.str.387 = private unnamed_addr constant [16 x i8] c"l2tp.vendor_avp\00", align 1
@.str.388 = private unnamed_addr constant [32 x i8] c"L2TP vendor AVP dissector table\00", align 1
@l2tp_vendor_avp_dissector_table = internal global ptr null, align 8
@.str.389 = private unnamed_addr constant [23 x i8] c"L2TPv3 pseudowire type\00", align 1
@pw_type_table = internal global ptr null, align 8
@.str.390 = private unnamed_addr constant [12 x i8] c"cookie_size\00", align 1
@.str.391 = private unnamed_addr constant [19 x i8] c"L2TPv3 Cookie Size\00", align 1
@l2tpv3_cookie = internal global i32 -1, align 4
@.str.392 = private unnamed_addr constant [12 x i8] c"l2_specific\00", align 1
@.str.393 = private unnamed_addr constant [28 x i8] c"L2TPv3 L2-Specific Sublayer\00", align 1
@l2tpv3_l2_specific = internal global i32 -1, align 4
@.str.394 = private unnamed_addr constant [9 x i8] c"protocol\00", align 1
@.str.395 = private unnamed_addr constant [124 x i8] c"Dissection of pseudowire types is configured through \22Decode As\22. Type 0 is used for sessions with unknown pseudowire type.\00", align 1
@.str.396 = private unnamed_addr constant [41 x i8] c"Pseudowire Type \22Decode As\22 instructions\00", align 1
@.str.397 = private unnamed_addr constant [14 x i8] c"shared_secret\00", align 1
@.str.398 = private unnamed_addr constant [14 x i8] c"Shared Secret\00", align 1
@.str.399 = private unnamed_addr constant [61 x i8] c"Shared secret used for control message digest authentication\00", align 1
@shared_secret = internal global ptr @.str.746, align 8

; Function Attrs: null_pointer_is_valid sspstrong uwtable
define hidden void @proto_register_l2tp() #0 {
  %1 = alloca ptr, align 8
  %2 = alloca ptr, align 8
  call void @llvm.lifetime.start.p0(i64 8, ptr %1) #13
  call void @llvm.lifetime.start.p0(i64 8, ptr %2) #13
  %3 = call i32 @proto_register_protocol(ptr noundef @.str.382, ptr noundef @.str.383, ptr noundef @.str.380)
  store i32 %3, ptr @proto_l2tp, align 4
  %4 = load i32, ptr @proto_l2tp, align 4
  %5 = call ptr @register_dissector(ptr noundef @.str.384, ptr noundef @dissect_l2tp_udp, i32 noundef %4)
  store ptr %5, ptr @l2tp_udp_handle, align 8
  %6 = load i32, ptr @proto_l2tp, align 4
  %7 = call ptr @register_dissector(ptr noundef @.str.385, ptr noundef @dissect_l2tp_ip, i32 noundef %6)
  store ptr %7, ptr @l2tp_ip_handle, align 8
  %8 = load i32, ptr @proto_l2tp, align 4
  %9 = call ptr @register_dissector(ptr noundef @.str.386, ptr noundef @dissect_atm_oam_llc, i32 noundef %8)
  store ptr %9, ptr @atm_oam_llc_handle, align 8
  %10 = load i32, ptr @proto_l2tp, align 4
  call void @proto_register_field_array(i32 noundef %10, ptr noundef @proto_register_l2tp.hf, i32 noundef 188)
  call void @proto_register_subtree_array(ptr noundef @proto_register_l2tp.ett, i32 noundef 10)
  %11 = load i32, ptr @proto_l2tp, align 4
  %12 = call ptr @expert_register_protocol(i32 noundef %11)
  store ptr %12, ptr %2, align 8
  %13 = load ptr, ptr %2, align 8
  call void @expert_register_field_array(ptr noundef %13, ptr noundef @proto_register_l2tp.ei, i32 noundef 3)
  %14 = load i32, ptr @proto_l2tp, align 4
  %15 = call ptr @register_dissector_table(ptr noundef @.str.387, ptr noundef @.str.388, i32 noundef %14, i32 noundef 7, i32 noundef 1)
  store ptr %15, ptr @l2tp_vendor_avp_dissector_table, align 8
  %16 = load i32, ptr @proto_l2tp, align 4
  %17 = call ptr @register_dissector_table(ptr noundef @.str.381, ptr noundef @.str.389, i32 noundef %16, i32 noundef 7, i32 noundef 1)
  store ptr %17, ptr @pw_type_table, align 8
  %18 = load i32, ptr @proto_l2tp, align 4
  %19 = call ptr @prefs_register_protocol(i32 noundef %18, ptr noundef null)
  store ptr %19, ptr %1, align 8
  %20 = load ptr, ptr %1, align 8
  call void @prefs_register_enum_preference(ptr noundef %20, ptr noundef @.str.390, ptr noundef @.str.391, ptr noundef @.str.391, ptr noundef @l2tpv3_cookie, ptr noundef @l2tpv3_cookies, i1 noundef zeroext false)
  %21 = load ptr, ptr %1, align 8
  call void @prefs_register_enum_preference(ptr noundef %21, ptr noundef @.str.392, ptr noundef @.str.393, ptr noundef @.str.393, ptr noundef @l2tpv3_l2_specific, ptr noundef @l2tpv3_l2_specifics, i1 noundef zeroext false)
  %22 = load ptr, ptr %1, align 8
  call void @prefs_register_static_text_preference(ptr noundef %22, ptr noundef @.str.394, ptr noundef @.str.395, ptr noundef @.str.396)
  %23 = load ptr, ptr %1, align 8
  call void @prefs_register_string_preference(ptr noundef %23, ptr noundef @.str.397, ptr noundef @.str.398, ptr noundef @.str.399, ptr noundef @shared_secret)
  call void @register_cleanup_routine(ptr noundef @l2tp_cleanup)
  call void @register_decode_as(ptr noundef @proto_register_l2tp.l2tp_da)
  call void @llvm.lifetime.end.p0(i64 8, ptr %2) #13
  call void @llvm.lifetime.end.p0(i64 8, ptr %1) #13
  ret void
}