; Function Attrs: null_pointer_is_valid sspstrong uwtable
define hidden void @proto_register_l2tp() local_unnamed_addr #0 {
  %1 = tail call i32 @proto_register_protocol(ptr noundef nonnull @.str.382, ptr noundef nonnull @.str.383, ptr noundef nonnull @.str.380)
  store i32 %1, ptr @proto_l2tp, align 4
  %2 = tail call ptr @register_dissector(ptr noundef nonnull @.str.384, ptr noundef nonnull @dissect_l2tp_udp, i32 noundef %1)
  store ptr %2, ptr @l2tp_udp_handle, align 8
  %3 = load i32, ptr @proto_l2tp, align 4
  %4 = tail call ptr @register_dissector(ptr noundef nonnull @.str.385, ptr noundef nonnull @dissect_l2tp_ip, i32 noundef %3)
  store ptr %4, ptr @l2tp_ip_handle, align 8
  %5 = load i32, ptr @proto_l2tp, align 4
  %6 = tail call ptr @register_dissector(ptr noundef nonnull @.str.386, ptr noundef nonnull @dissect_atm_oam_llc, i32 noundef %5)
  store ptr %6, ptr @atm_oam_llc_handle, align 8
  %7 = load i32, ptr @proto_l2tp, align 4
  tail call void @proto_register_field_array(i32 noundef %7, ptr noundef nonnull @proto_register_l2tp.hf, i32 noundef 188)
  tail call void @proto_register_subtree_array(ptr noundef nonnull @proto_register_l2tp.ett, i32 noundef 10)
  %8 = load i32, ptr @proto_l2tp, align 4
  %9 = tail call ptr @expert_register_protocol(i32 noundef %8)
  tail call void @expert_register_field_array(ptr noundef %9, ptr noundef nonnull @proto_register_l2tp.ei, i32 noundef 3)
  %10 = load i32, ptr @proto_l2tp, align 4
  %11 = tail call ptr @register_dissector_table(ptr noundef nonnull @.str.387, ptr noundef nonnull @.str.388, i32 noundef %10, i32 noundef 7, i32 noundef 1)
  store ptr %11, ptr @l2tp_vendor_avp_dissector_table, align 8
  %12 = load i32, ptr @proto_l2tp, align 4
  %13 = tail call ptr @register_dissector_table(ptr noundef nonnull @.str.381, ptr noundef nonnull @.str.389, i32 noundef %12, i32 noundef 7, i32 noundef 1)
  store ptr %13, ptr @pw_type_table, align 8
  %14 = load i32, ptr @proto_l2tp, align 4
  %15 = tail call ptr @prefs_register_protocol(i32 noundef %14, ptr noundef null)
  tail call void @prefs_register_enum_preference(ptr noundef %15, ptr noundef nonnull @.str.390, ptr noundef nonnull @.str.391, ptr noundef nonnull @.str.391, ptr noundef nonnull @l2tpv3_cookie, ptr noundef nonnull @l2tpv3_cookies, i1 noundef zeroext false)
  tail call void @prefs_register_enum_preference(ptr noundef %15, ptr noundef nonnull @.str.392, ptr noundef nonnull @.str.393, ptr noundef nonnull @.str.393, ptr noundef nonnull @l2tpv3_l2_specific, ptr noundef nonnull @l2tpv3_l2_specifics, i1 noundef zeroext false)
  tail call void @prefs_register_static_text_preference(ptr noundef %15, ptr noundef nonnull @.str.394, ptr noundef nonnull @.str.395, ptr noundef nonnull @.str.396)
  tail call void @prefs_register_string_preference(ptr noundef %15, ptr noundef nonnull @.str.397, ptr noundef nonnull @.str.398, ptr noundef nonnull @.str.399, ptr noundef nonnull @shared_secret)
  tail call void @register_cleanup_routine(ptr noundef nonnull @l2tp_cleanup)
  tail call void @register_decode_as(ptr noundef nonnull @proto_register_l2tp.l2tp_da)
  ret void
}